; Function Attrs: nounwind uwtable
define dso_local noundef ptr @ExecInitHash(ptr noundef %0, ptr noundef %1, i32 noundef %2) local_unnamed_addr #0 {
  %4 = tail call noundef ptr @palloc0(i64 noundef 256) #16
  store i32 433, ptr %4, align 4
  %5 = getelementptr inbounds nuw i8, ptr %4, i64 8
  store ptr %0, ptr %5, align 8
  %6 = getelementptr inbounds nuw i8, ptr %4, i64 16
  store ptr %1, ptr %6, align 8
  %7 = getelementptr inbounds nuw i8, ptr %4, i64 24
  store ptr @ExecHash, ptr %7, align 8
  %8 = getelementptr inbounds nuw i8, ptr %4, i64 200
  store ptr null, ptr %8, align 8
  tail call void @ExecAssignExprContext(ptr noundef %1, ptr noundef nonnull %4) #16
  %9 = getelementptr inbounds nuw i8, ptr %0, i64 64
  %10 = load ptr, ptr %9, align 8
  %11 = tail call ptr @ExecInitNode(ptr noundef %10, ptr noundef %1, i32 noundef %2) #16
  %12 = getelementptr inbounds nuw i8, ptr %4, i64 72
  store ptr %11, ptr %12, align 8
  tail call void @ExecInitResultTupleSlotTL(ptr noundef nonnull %4, ptr noundef nonnull @TTSOpsMinimalTuple) #16
  %13 = getelementptr inbounds nuw i8, ptr %4, i64 136
  store ptr null, ptr %13, align 8
  %14 = getelementptr inbounds nuw i8, ptr %4, i64 208
  store ptr null, ptr %14, align 8
  ret ptr %4
}